target datalayout = "e-m:e-p270:32:32-p271:32:32-p272:64:64-i64:64-i128:128-f80:128-n8:16:32:64-S128"
target triple = "x86_64-unknown-linux-gnu"

%"class.std::basic_string_view" = type { i64, ptr }

; Function Attrs: mustprogress nounwind uwtable
define linkonce_odr hidden noundef nonnull align 1 dereferenceable(1) ptr @_ZNKSt17basic_string_viewIcSt11char_traitsIcEEixEm(ptr noundef nonnull align 8 dereferenceable(16) %this, i64 noundef %__pos) #5 comdat align 2 {
entry:
  %this.addr = alloca ptr, align 8
  %__pos.addr = alloca i64, align 8
  store ptr %this, ptr %this.addr, align 8
  store i64 %__pos, ptr %__pos.addr, align 8
  %this1 = load ptr, ptr %this.addr, align 8
  br label %do.body

do.body:                                          ; preds = %entry
  br label %do.cond

do.cond:                                          ; preds = %do.body
  br label %do.end

do.end:                                           ; preds = %do.cond
  %_M_str = getelementptr inbounds %"class.std::basic_string_view", ptr %this1, i32 0, i32 1
  %0 = load ptr, ptr %_M_str, align 8
  %1 = load i64, ptr %__pos.addr, align 8
  %add.ptr = getelementptr inbounds i8, ptr %0, i64 %1
  ret ptr %add.ptr
}

; Function Attrs: mustprogress nounwind uwtable
define linkonce_odr hidden noundef i64 @_ZNKSt17basic_string_viewIcSt11char_traitsIcEE4sizeEv(ptr noundef nonnull align 8 dereferenceable(16) %this) #5 comdat align 2 {
entry:
  %this.addr = alloca ptr, align 8
  store ptr %this, ptr %this.addr, align 8
  %this1 = load ptr, ptr %this.addr, align 8
  %_M_len = getelementptr inbounds %"class.std::basic_string_view", ptr %this1, i32 0, i32 0
  %0 = load i64, ptr %_M_len, align 8
  ret i64 %0
}

; Function Attrs: mustprogress nounwind uwtable
define hidden noundef zeroext i1 @_ZN6google8protobuf8compiler6csharp17AllPrintableAsciiESt17basic_string_viewIcSt11char_traitsIcEE(i64 %text.coerce0, ptr %text.coerce1) #5 {
entry:
  %retval = alloca i1, align 1
  %text = alloca %"class.std::basic_string_view", align 8
  %i = alloca i32, align 4
  %0 = getelementptr inbounds { i64, ptr }, ptr %text, i32 0, i32 0
  store i64 %text.coerce0, ptr %0, align 8
  %1 = getelementptr inbounds { i64, ptr }, ptr %text, i32 0, i32 1
  store ptr %text.coerce1, ptr %1, align 8
  store i32 0, ptr %i, align 4
  br label %for.cond

for.cond:                                         ; preds = %for.inc, %entry
  %2 = load i32, ptr %i, align 4
  %conv = sext i32 %2 to i64
  %call = call noundef i64 @_ZNKSt17basic_string_viewIcSt11char_traitsIcEE4sizeEv(ptr noundef nonnull align 8 dereferenceable(16) %text) #3
  %cmp = icmp ult i64 %conv, %call
  br i1 %cmp, label %for.body, label %for.end

for.body:                                         ; preds = %for.cond
  %3 = load i32, ptr %i, align 4
  %conv1 = sext i32 %3 to i64
  %call2 = call noundef nonnull align 1 dereferenceable(1) ptr @_ZNKSt17basic_string_viewIcSt11char_traitsIcEEixEm(ptr noundef nonnull align 8 dereferenceable(16) %text, i64 noundef %conv1) #3
  %4 = load i8, ptr %call2, align 1
  %conv3 = sext i8 %4 to i32
  %cmp4 = icmp slt i32 %conv3, 32
  br i1 %cmp4, label %if.then, label %lor.lhs.false

lor.lhs.false:                                    ; preds = %for.body
  %5 = load i32, ptr %i, align 4
  %conv5 = sext i32 %5 to i64
  %call6 = call noundef nonnull align 1 dereferenceable(1) ptr @_ZNKSt17basic_string_viewIcSt11char_traitsIcEEixEm(ptr noundef nonnull align 8 dereferenceable(16) %text, i64 noundef %conv5) #3
  %6 = load i8, ptr %call6, align 1
  %conv7 = sext i8 %6 to i32
  %cmp8 = icmp sgt i32 %conv7, 126
  br i1 %cmp8, label %if.then, label %if.end

if.then:                                          ; preds = %lor.lhs.false, %for.body
  store i1 false, ptr %retval, align 1
  br label %return

if.end:                                           ; preds = %lor.lhs.false
  br label %for.inc

for.inc:                                          ; preds = %if.end
  %7 = load i32, ptr %i, align 4
  %inc = add nsw i32 %7, 1
  store i32 %inc, ptr %i, align 4
  br label %for.cond, !llvm.loop !10

for.end:                                          ; preds = %for.cond
  store i1 true, ptr %retval, align 1
  br label %return

return:                                           ; preds = %for.end, %if.then
  %8 = load i1, ptr %retval, align 1
  ret i1 %8
}